; Function Attrs: mustprogress uwtable
define void @_Z11free_symtabP8t_symtab(ptr noundef captures(none) %0) local_unnamed_addr #0 personality ptr @__gxx_personality_v0 {
  %2 = alloca %"class.std::__cxx11::basic_string", align 8
  %3 = alloca %"class.std::allocator.2", align 1
  %4 = alloca %"class.std::filesystem::__cxx11::path", align 8
  %5 = getelementptr inbounds nuw i8, ptr %0, i64 8
  %6 = load ptr, ptr %5, align 8, !tbaa !98
  %.not18 = icmp eq ptr %6, null
  br i1 %.not18, label %._crit_edge, label %.lr.ph

.lr.ph:                                           ; preds = %1, %.lr.ph
  %.01419 = phi ptr [ %12, %.lr.ph ], [ %6, %1 ]
  %7 = load i32, ptr %0, align 4, !tbaa !34
  %8 = load i32, ptr %.01419, align 4, !tbaa !34
  %9 = tail call i32 @llvm.smin.i32(i32 %7, i32 %8)
  %10 = sub nsw i32 %7, %9
  store i32 %10, ptr %0, align 8, !tbaa !108
  %11 = getelementptr inbounds nuw i8, ptr %.01419, i64 16
  %12 = load ptr, ptr %11, align 8, !tbaa !105
  tail call void @_Z9save_freePKcS0_iPv(ptr noundef nonnull @.str.23, ptr noundef nonnull @.str.1, i32 noundef 402, ptr noundef nonnull %.01419)
  %.not = icmp eq ptr %12, null
  br i1 %.not, label %._crit_edge, label %.lr.ph, !llvm.loop !119

._crit_edge:                                      ; preds = %.lr.ph, %1
  store ptr null, ptr %5, align 8, !tbaa !98
  %13 = load i32, ptr %0, align 8, !tbaa !108
  %.not15 = icmp eq i32 %13, 0
  br i1 %.not15, label %30, label %14

14:                                               ; preds = %._crit_edge
  call void @llvm.lifetime.start.p0(i64 32, ptr nonnull %2) #25
  call void @llvm.lifetime.start.p0(i64 1, ptr nonnull %3) #25
  call void @_ZNSt7__cxx1112basic_stringIcSt11char_traitsIcESaIcEEC2IS3_EEPKcRKS3_(ptr noundef nonnull align 8 dereferenceable(32) %2, ptr noundef nonnull @.str.25, ptr noundef nonnull align 1 dereferenceable(1) %3)
  call void @llvm.lifetime.start.p0(i64 40, ptr nonnull %4) #25
  invoke void @_ZNSt10filesystem7__cxx114pathC2IA125_cS1_EERKT_NS1_6formatE(ptr noundef nonnull align 8 dereferenceable(40) %4, ptr noundef nonnull align 1 dereferenceable(125) @.str.1, i8 noundef zeroext 2)
          to label %15 unwind label %17

15:                                               ; preds = %14
  invoke void @_Z18gmx_error_functionPKcRKNSt7__cxx1112basic_stringIcSt11char_traitsIcESaIcEEERKNSt10filesystem7__cxx114pathEi(ptr noundef nonnull @.str.24, ptr noundef nonnull align 8 dereferenceable(32) %2, ptr noundef nonnull align 8 dereferenceable(40) %4, i32 noundef 407) #29
          to label %16 unwind label %19

16:                                               ; preds = %15
  unreachable

17:                                               ; preds = %14
  %18 = landingpad { ptr, i32 }
          cleanup
  br label %21

19:                                               ; preds = %15
  %20 = landingpad { ptr, i32 }
          cleanup
  call void @_ZNSt10filesystem7__cxx114pathD2Ev(ptr noundef nonnull align 8 dereferenceable(40) %4) #25
  br label %21

21:                                               ; preds = %19, %17
  %.pn = phi { ptr, i32 } [ %20, %19 ], [ %18, %17 ]
  call void @llvm.lifetime.end.p0(i64 40, ptr nonnull %4) #25
  %22 = load ptr, ptr %2, align 8, !tbaa !19
  %23 = getelementptr inbounds nuw i8, ptr %2, i64 16
  %24 = icmp eq ptr %22, %23
  br i1 %24, label %_ZNKSt7__cxx1112basic_stringIcSt11char_traitsIcESaIcEE11_M_is_localEv.exit.thread.i.i, label %_ZNKSt7__cxx1112basic_stringIcSt11char_traitsIcESaIcEE11_M_is_localEv.exit.i.i

_ZNKSt7__cxx1112basic_stringIcSt11char_traitsIcESaIcEE11_M_is_localEv.exit.thread.i.i: ; preds = %21
  %25 = getelementptr inbounds nuw i8, ptr %2, i64 8
  %26 = load i64, ptr %25, align 8, !tbaa !21
  %27 = icmp ult i64 %26, 16
  call void @llvm.assume(i1 %27)
  br label %_ZNSt7__cxx1112basic_stringIcSt11char_traitsIcESaIcEED2Ev.exit

_ZNKSt7__cxx1112basic_stringIcSt11char_traitsIcESaIcEE11_M_is_localEv.exit.i.i: ; preds = %21
  %28 = load i64, ptr %23, align 8, !tbaa !23
  %29 = add i64 %28, 1
  call void @_ZdlPvm(ptr noundef %22, i64 noundef %29) #26
  br label %_ZNSt7__cxx1112basic_stringIcSt11char_traitsIcESaIcEED2Ev.exit

_ZNSt7__cxx1112basic_stringIcSt11char_traitsIcESaIcEED2Ev.exit: ; preds = %_ZNKSt7__cxx1112basic_stringIcSt11char_traitsIcESaIcEE11_M_is_localEv.exit.i.i, %_ZNKSt7__cxx1112basic_stringIcSt11char_traitsIcESaIcEE11_M_is_localEv.exit.thread.i.i
  call void @llvm.lifetime.end.p0(i64 1, ptr nonnull %3) #25
  call void @llvm.lifetime.end.p0(i64 32, ptr nonnull %2) #25
  resume { ptr, i32 } %.pn

30:                                               ; preds = %._crit_edge
  ret void
}